target datalayout = "e-m:e-p270:32:32-p271:32:32-p272:64:64-i64:64-i128:128-f80:128-n8:16:32:64-S128"
target triple = "x86_64-pc-linux-gnu"

%struct.lv_area_t = type { i32, i32, i32, i32 }

; Function Attrs: nounwind uwtable
define internal void @get_rounded_area(i16 noundef signext %0, i32 noundef %1, i8 noundef zeroext %2, ptr noundef %3) #0 {
  %5 = alloca i16, align 2
  %6 = alloca i32, align 4
  %7 = alloca i8, align 1
  %8 = alloca ptr, align 8
  %9 = alloca i32, align 4
  %10 = alloca i8, align 1
  %11 = alloca i32, align 4
  %12 = alloca i32, align 4
  store i16 %0, ptr %5, align 2, !tbaa !77
  store i32 %1, ptr %6, align 4, !tbaa !23
  store i8 %2, ptr %7, align 1, !tbaa !30
  store ptr %3, ptr %8, align 8, !tbaa !8
  call void @llvm.lifetime.start.p0(i64 4, ptr %9) #6
  %13 = load i8, ptr %7, align 1, !tbaa !30
  %14 = zext i8 %13 to i32
  %15 = sdiv i32 %14, 2
  store i32 %15, ptr %9, align 4, !tbaa !23
  call void @llvm.lifetime.start.p0(i64 1, ptr %10) #6
  %16 = load i8, ptr %7, align 1, !tbaa !30
  %17 = zext i8 %16 to i32
  %18 = and i32 %17, 1
  %19 = icmp ne i32 %18, 0
  %20 = select i1 %19, i32 0, i32 1
  %21 = trunc i32 %20 to i8
  store i8 %21, ptr %10, align 1, !tbaa !30
  call void @llvm.lifetime.start.p0(i64 4, ptr %11) #6
  call void @llvm.lifetime.start.p0(i64 4, ptr %12) #6
  %22 = load i32, ptr %6, align 4, !tbaa !23
  %23 = load i32, ptr %9, align 4, !tbaa !23
  %24 = sub nsw i32 %22, %23
  %25 = load i16, ptr %5, align 2, !tbaa !77
  %26 = call i32 @lv_trigo_cos(i16 noundef signext %25)
  %27 = mul nsw i32 %24, %26
  %28 = ashr i32 %27, 7
  store i32 %28, ptr %11, align 4, !tbaa !23
  %29 = load i32, ptr %6, align 4, !tbaa !23
  %30 = load i32, ptr %9, align 4, !tbaa !23
  %31 = sub nsw i32 %29, %30
  %32 = load i16, ptr %5, align 2, !tbaa !77
  %33 = call i32 @lv_trigo_sin(i16 noundef signext %32)
  %34 = mul nsw i32 %31, %33
  %35 = ashr i32 %34, 7
  store i32 %35, ptr %12, align 4, !tbaa !23
  %36 = load i32, ptr %11, align 4, !tbaa !23
  %37 = icmp sgt i32 %36, 0
  br i1 %37, label %38, label %55

38:                                               ; preds = %4
  %39 = load i32, ptr %11, align 4, !tbaa !23
  %40 = sub nsw i32 %39, 128
  %41 = ashr i32 %40, 8
  store i32 %41, ptr %11, align 4, !tbaa !23
  %42 = load i32, ptr %11, align 4, !tbaa !23
  %43 = load i32, ptr %9, align 4, !tbaa !23
  %44 = sub nsw i32 %42, %43
  %45 = load i8, ptr %10, align 1, !tbaa !30
  %46 = zext i8 %45 to i32
  %47 = add nsw i32 %44, %46
  %48 = load ptr, ptr %8, align 8, !tbaa !8
  %49 = getelementptr inbounds nuw %struct.lv_area_t, ptr %48, i32 0, i32 0
  store i32 %47, ptr %49, align 4, !tbaa !33
  %50 = load i32, ptr %11, align 4, !tbaa !23
  %51 = load i32, ptr %9, align 4, !tbaa !23
  %52 = add nsw i32 %50, %51
  %53 = load ptr, ptr %8, align 8, !tbaa !8
  %54 = getelementptr inbounds nuw %struct.lv_area_t, ptr %53, i32 0, i32 2
  store i32 %52, ptr %54, align 4, !tbaa !36
  br label %72

55:                                               ; preds = %4
  %56 = load i32, ptr %11, align 4, !tbaa !23
  %57 = add nsw i32 %56, 128
  %58 = ashr i32 %57, 8
  store i32 %58, ptr %11, align 4, !tbaa !23
  %59 = load i32, ptr %11, align 4, !tbaa !23
  %60 = load i32, ptr %9, align 4, !tbaa !23
  %61 = sub nsw i32 %59, %60
  %62 = load ptr, ptr %8, align 8, !tbaa !8
  %63 = getelementptr inbounds nuw %struct.lv_area_t, ptr %62, i32 0, i32 0
  store i32 %61, ptr %63, align 4, !tbaa !33
  %64 = load i32, ptr %11, align 4, !tbaa !23
  %65 = load i32, ptr %9, align 4, !tbaa !23
  %66 = add nsw i32 %64, %65
  %67 = load i8, ptr %10, align 1, !tbaa !30
  %68 = zext i8 %67 to i32
  %69 = sub nsw i32 %66, %68
  %70 = load ptr, ptr %8, align 8, !tbaa !8
  %71 = getelementptr inbounds nuw %struct.lv_area_t, ptr %70, i32 0, i32 2
  store i32 %69, ptr %71, align 4, !tbaa !36
  br label %72

72:                                               ; preds = %55, %38
  %73 = load i32, ptr %12, align 4, !tbaa !23
  %74 = icmp sgt i32 %73, 0
  br i1 %74, label %75, label %92

75:                                               ; preds = %72
  %76 = load i32, ptr %12, align 4, !tbaa !23
  %77 = sub nsw i32 %76, 128
  %78 = ashr i32 %77, 8
  store i32 %78, ptr %12, align 4, !tbaa !23
  %79 = load i32, ptr %12, align 4, !tbaa !23
  %80 = load i32, ptr %9, align 4, !tbaa !23
  %81 = sub nsw i32 %79, %80
  %82 = load i8, ptr %10, align 1, !tbaa !30
  %83 = zext i8 %82 to i32
  %84 = add nsw i32 %81, %83
  %85 = load ptr, ptr %8, align 8, !tbaa !8
  %86 = getelementptr inbounds nuw %struct.lv_area_t, ptr %85, i32 0, i32 1
  store i32 %84, ptr %86, align 4, !tbaa !35
  %87 = load i32, ptr %12, align 4, !tbaa !23
  %88 = load i32, ptr %9, align 4, !tbaa !23
  %89 = add nsw i32 %87, %88
  %90 = load ptr, ptr %8, align 8, !tbaa !8
  %91 = getelementptr inbounds nuw %struct.lv_area_t, ptr %90, i32 0, i32 3
  store i32 %89, ptr %91, align 4, !tbaa !37
  br label %109

92:                                               ; preds = %72
  %93 = load i32, ptr %12, align 4, !tbaa !23
  %94 = add nsw i32 %93, 128
  %95 = ashr i32 %94, 8
  store i32 %95, ptr %12, align 4, !tbaa !23
  %96 = load i32, ptr %12, align 4, !tbaa !23
  %97 = load i32, ptr %9, align 4, !tbaa !23
  %98 = sub nsw i32 %96, %97
  %99 = load ptr, ptr %8, align 8, !tbaa !8
  %100 = getelementptr inbounds nuw %struct.lv_area_t, ptr %99, i32 0, i32 1
  store i32 %98, ptr %100, align 4, !tbaa !35
  %101 = load i32, ptr %12, align 4, !tbaa !23
  %102 = load i32, ptr %9, align 4, !tbaa !23
  %103 = add nsw i32 %101, %102
  %104 = load i8, ptr %10, align 1, !tbaa !30
  %105 = zext i8 %104 to i32
  %106 = sub nsw i32 %103, %105
  %107 = load ptr, ptr %8, align 8, !tbaa !8
  %108 = getelementptr inbounds nuw %struct.lv_area_t, ptr %107, i32 0, i32 3
  store i32 %106, ptr %108, align 4, !tbaa !37
  br label %109

109:                                              ; preds = %92, %75
  call void @llvm.lifetime.end.p0(i64 4, ptr %12) #6
  call void @llvm.lifetime.end.p0(i64 4, ptr %11) #6
  call void @llvm.lifetime.end.p0(i64 1, ptr %10) #6
  call void @llvm.lifetime.end.p0(i64 4, ptr %9) #6
  ret void
}