; Function Attrs: nounwind uwtable
define internal fastcc void @get_rounded_area(i16 noundef signext %0, i32 noundef range(i32 0, 65536) %1, i8 noundef zeroext %2, ptr noundef nonnull writeonly captures(none) initializes((0, 16)) %3) unnamed_addr #0 {
  %5 = lshr i8 %2, 1
  %6 = zext nneg i8 %5 to i32
  %7 = and i8 %2, 1
  %8 = xor i8 %7, 1
  %9 = sub nsw i32 %1, %6
  %10 = tail call i32 @lv_trigo_cos(i16 noundef signext %0) #6
  %11 = mul nsw i32 %10, %9
  %12 = ashr i32 %11, 7
  %13 = tail call i32 @lv_trigo_sin(i16 noundef signext %0) #6
  %14 = mul nsw i32 %13, %9
  %15 = ashr i32 %14, 7
  %16 = icmp sgt i32 %12, 0
  br i1 %16, label %17, label %24

17:                                               ; preds = %4
  %18 = add nsw i32 %12, -128
  %19 = ashr i32 %18, 8
  %20 = zext nneg i8 %8 to i32
  %21 = sub nsw i32 %20, %6
  %22 = add nsw i32 %21, %19
  %23 = add nsw i32 %19, %6
  br label %31

24:                                               ; preds = %4
  %25 = add nsw i32 %12, 128
  %26 = ashr i32 %25, 8
  %27 = sub nsw i32 %26, %6
  %28 = zext nneg i8 %8 to i32
  %29 = sub nsw i32 %6, %28
  %30 = add nsw i32 %29, %26
  br label %31

31:                                               ; preds = %24, %17
  %.sink45 = phi i32 [ %22, %17 ], [ %27, %24 ]
  %.sink = phi i32 [ %23, %17 ], [ %30, %24 ]
  store i32 %.sink45, ptr %3, align 4, !tbaa !30
  %32 = getelementptr inbounds nuw i8, ptr %3, i64 8
  store i32 %.sink, ptr %32, align 4, !tbaa !33
  %33 = icmp sgt i32 %15, 0
  br i1 %33, label %34, label %41

34:                                               ; preds = %31
  %35 = add nsw i32 %15, -128
  %36 = ashr i32 %35, 8
  %37 = zext nneg i8 %8 to i32
  %38 = sub nsw i32 %37, %6
  %39 = add nsw i32 %38, %36
  %40 = add nsw i32 %36, %6
  br label %48

41:                                               ; preds = %31
  %42 = add nsw i32 %15, 128
  %43 = ashr i32 %42, 8
  %44 = sub nsw i32 %43, %6
  %45 = zext nneg i8 %8 to i32
  %46 = sub nsw i32 %6, %45
  %47 = add nsw i32 %46, %43
  br label %48

48:                                               ; preds = %41, %34
  %.sink47 = phi i32 [ %39, %34 ], [ %44, %41 ]
  %.sink46 = phi i32 [ %40, %34 ], [ %47, %41 ]
  %49 = getelementptr inbounds nuw i8, ptr %3, i64 4
  store i32 %.sink47, ptr %49, align 4, !tbaa !32
  %50 = getelementptr inbounds nuw i8, ptr %3, i64 12
  store i32 %.sink46, ptr %50, align 4, !tbaa !34
  ret void
}